target datalayout = "e-m:e-p270:32:32-p271:32:32-p272:64:64-i64:64-i128:128-f80:128-n8:16:32:64-S128"
target triple = "x86_64-pc-linux-gnu"

%struct.Mio_LibraryStruct_t_ = type { ptr, i32, ptr, ptr, ptr, ptr, ptr, ptr, ptr, ptr, ptr, ptr, ptr, ptr, ptr, ptr, i32, i32, i32, ptr, ptr, ptr, i32, ptr, ptr, ptr, ptr, [3 x ptr], [3 x ptr] }

; Function Attrs: nounwind uwtable
define i32 @Mio_LibraryParseFormulas(ptr noundef %0) #0 {
  %2 = alloca i32, align 4
  %3 = alloca ptr, align 8
  %4 = alloca ptr, align 8
  %5 = alloca i32, align 4
  store ptr %0, ptr %3, align 8, !tbaa !75
  call void @llvm.lifetime.start.p0(i64 8, ptr %4) #10
  %6 = load ptr, ptr %3, align 8, !tbaa !75
  %7 = getelementptr inbounds nuw %struct.Mio_LibraryStruct_t_, ptr %6, i32 0, i32 1
  store i32 0, ptr %7, align 8, !tbaa !76
  %8 = load ptr, ptr %3, align 8, !tbaa !75
  %9 = call ptr @Mio_LibraryReadGates(ptr noundef %8)
  store ptr %9, ptr %4, align 8, !tbaa !19
  br label %10

10:                                               ; preds = %18, %1
  %11 = load ptr, ptr %4, align 8, !tbaa !19
  %12 = icmp ne ptr %11, null
  br i1 %12, label %13, label %21

13:                                               ; preds = %10
  %14 = load ptr, ptr %3, align 8, !tbaa !75
  %15 = getelementptr inbounds nuw %struct.Mio_LibraryStruct_t_, ptr %14, i32 0, i32 1
  %16 = load i32, ptr %15, align 8, !tbaa !76
  %17 = add nsw i32 %16, 1
  store i32 %17, ptr %15, align 8, !tbaa !76
  br label %18

18:                                               ; preds = %13
  %19 = load ptr, ptr %4, align 8, !tbaa !19
  %20 = call ptr @Mio_GateReadNext(ptr noundef %19)
  store ptr %20, ptr %4, align 8, !tbaa !19
  br label %10, !llvm.loop !77

21:                                               ; preds = %10
  %22 = load ptr, ptr %3, align 8, !tbaa !75
  %23 = call ptr @Mio_LibraryReadGates(ptr noundef %22)
  store ptr %23, ptr %4, align 8, !tbaa !19
  br label %24

24:                                               ; preds = %33, %21
  %25 = load ptr, ptr %4, align 8, !tbaa !19
  %26 = icmp ne ptr %25, null
  br i1 %26, label %27, label %36

27:                                               ; preds = %24
  %28 = load ptr, ptr %4, align 8, !tbaa !19
  %29 = call i32 @Mio_GateParseFormula(ptr noundef %28)
  %30 = icmp ne i32 %29, 0
  br i1 %30, label %31, label %32

31:                                               ; preds = %27
  store i32 1, ptr %2, align 4
  store i32 1, ptr %5, align 4
  br label %37

32:                                               ; preds = %27
  br label %33

33:                                               ; preds = %32
  %34 = load ptr, ptr %4, align 8, !tbaa !19
  %35 = call ptr @Mio_GateReadNext(ptr noundef %34)
  store ptr %35, ptr %4, align 8, !tbaa !19
  br label %24, !llvm.loop !78

36:                                               ; preds = %24
  store i32 0, ptr %2, align 4
  store i32 1, ptr %5, align 4
  br label %37

37:                                               ; preds = %36, %31
  call void @llvm.lifetime.end.p0(i64 8, ptr %4) #10
  %38 = load i32, ptr %2, align 4
  ret i32 %38
}