; Function Attrs: nounwind uwtable
define range(i32 0, 2) i32 @Mio_LibraryParseFormulas(ptr noundef initializes((8, 12)) %0) local_unnamed_addr #0 {
  %2 = getelementptr inbounds nuw i8, ptr %0, i64 8
  store i32 0, ptr %2, align 8, !tbaa !71
  %3 = tail call ptr @Mio_LibraryReadGates(ptr noundef %0) #12
  %.not12 = icmp eq ptr %3, null
  br i1 %.not12, label %._crit_edge, label %.lr.ph

.lr.ph:                                           ; preds = %1, %.lr.ph
  %.013 = phi ptr [ %6, %.lr.ph ], [ %3, %1 ]
  %4 = load i32, ptr %2, align 8, !tbaa !71
  %5 = add nsw i32 %4, 1
  store i32 %5, ptr %2, align 8, !tbaa !71
  %6 = tail call ptr @Mio_GateReadNext(ptr noundef nonnull %.013) #12
  %.not = icmp eq ptr %6, null
  br i1 %.not, label %._crit_edge, label %.lr.ph, !llvm.loop !72

._crit_edge:                                      ; preds = %.lr.ph, %1
  %7 = tail call ptr @Mio_LibraryReadGates(ptr noundef nonnull %0) #12
  %.not1014 = icmp eq ptr %7, null
  br i1 %.not1014, label %._crit_edge18, label %.lr.ph17

.lr.ph17:                                         ; preds = %._crit_edge, %9
  %.115 = phi ptr [ %10, %9 ], [ %7, %._crit_edge ]
  %8 = tail call i32 @Mio_GateParseFormula(ptr noundef nonnull %.115)
  %.not11 = icmp eq i32 %8, 0
  br i1 %.not11, label %9, label %._crit_edge18

9:                                                ; preds = %.lr.ph17
  %10 = tail call ptr @Mio_GateReadNext(ptr noundef nonnull %.115) #12
  %.not10 = icmp eq ptr %10, null
  br i1 %.not10, label %._crit_edge18, label %.lr.ph17, !llvm.loop !73

._crit_edge18:                                    ; preds = %.lr.ph17, %9, %._crit_edge
  %.09 = phi i32 [ 0, %._crit_edge ], [ 0, %9 ], [ 1, %.lr.ph17 ]
  ret i32 %.09
}